; Function Attrs: nounwind uwtable
define ptr @l_Array_anyMUnsafe_any___at_Lean_LocalContext_allM___spec__4___rarg___lambda__1___boxed(ptr noundef %0, ptr noundef %1) #2 {
  %3 = ptrtoint ptr %1 to i64
  %4 = and i64 %3, 1
  %.not = icmp eq i64 %4, 0
  br i1 %.not, label %5, label %lean_dec.exit

5:                                                ; preds = %2
  %6 = load i32, ptr %1, align 4, !tbaa !4
  %7 = icmp sgt i32 %6, 1
  br i1 %7, label %8, label %10, !prof !11

8:                                                ; preds = %5
  %9 = add nsw i32 %6, -1
  store i32 %9, ptr %1, align 4, !tbaa !4
  br label %lean_dec.exit

10:                                               ; preds = %5
  %.not.i = icmp eq i32 %6, 0
  br i1 %.not.i, label %lean_dec.exit, label %11

11:                                               ; preds = %10
  tail call void @lean_dec_ref_cold(ptr noundef nonnull %1) #8
  br label %lean_dec.exit

lean_dec.exit:                                    ; preds = %11, %10, %8, %2
  %12 = lshr i64 %3, 1
  %13 = trunc i64 %12 to i8
  %14 = tail call ptr @l_Array_anyMUnsafe_any___at_Lean_LocalContext_allM___spec__4___rarg___lambda__1(ptr noundef %0, i8 noundef zeroext %13)
  ret ptr %14
}